

Warning: no stack segment

 Start  Stop   Length Name                   Class
 00000H 00002H 00003H START                  START
 00003H 00224H 00222H CONSTANTS              CONST
 00226H 00B10H 008EBH DATA                   DATA
 00B11H 040E2H 035D2H CODE                   CODE
 040E3H 0438FH 002ADH LAST                   LAST

 Origin   Group
 0000:0   DOSGROUP

  Address         Publics by Name

 0000:0E52       $ABORT
 0000:15C2       $ALLOC
 0000:16E7       $ALLOCOPER
 0000:1250       $CHAR_OPER
 0000:139B       $CHDIR
 0000:3BE3       $CHMOD
 0000:3E76       $CLOSE
 0000:3B66       $CREAT
 0000:102F       $CREATE_PROCESS_DATA_BLOCK
 0000:3C32       $CURRENT_DIR
 0000:16D0       $DEALLOC
 0000:0E7C       $DIR_SEARCH_FIRST
 0000:0EDD       $DIR_SEARCH_NEXT
 0000:0F64       $DISK_RESET
 0000:3BA6       $DUP
 0000:3BCD       $DUP2
 0000:1029       $DUP_PDB
 0000:34EC       $EXEC
 0000:3527       $EXIT
 0000:2EFD       $FCB_CLOSE
 0000:2F6F       $FCB_CREATE
 0000:2D8D       $FCB_DELETE
 0000:2E97       $FCB_OPEN
 0000:2D35       $FCB_RANDOM_READ
 0000:2D45       $FCB_RANDOM_READ_BLOCK
 0000:2D3D       $FCB_RANDOM_WRITE
 0000:2D4D       $FCB_RANDOM_WRITE_BLOCK
 0000:2E0B       $FCB_RENAME
 0000:2D1D       $FCB_SEQ_READ
 0000:2D25       $FCB_SEQ_WRITE
 0000:40AA       $FILE_TIMES
 0000:3D2F       $FIND_FIRST
 0000:3DDF       $FIND_NEXT
 0000:0CE5       $GET_CURRENT_PDB
 0000:2C88       $GET_DATE
 0000:11FA       $GET_DEFAULT_DPB
 0000:1217       $GET_DEFAULT_DRIVE
 0000:11DB       $GET_DMA
 0000:11FC       $GET_DPB
 0000:119C       $GET_DRIVE_FREESPACE
 0000:0F13       $GET_FCB_FILE_LENGTH
 0000:0F51       $GET_FCB_POSITION
 0000:1184       $GET_INDOS_FLAG
 0000:122A       $GET_INTERRUPT_VECTOR
 0000:1190       $GET_IN_VARS
 0000:2CC5       $GET_TIME
 0000:1159       $GET_VERIFY_ON_WRITE
 0000:10E4       $GET_VERSION
 0000:10FD       $INTERNATIONAL
 0000:3FBE       $IOCTL
 0000:34F1       $KEEP_PROCESS
 0000:3F6C       $LSEEK
 0000:12EB       $MKDIR
 0000:3A52       $OPEN
 0000:101E       $PARSE_FILE_DESCRIPTOR
 0000:0FBE       $RAW_CON_INPUT
 0000:0F92       $RAW_CON_IO
 0000:3F16       $READ
 0000:3C7D       $RENAME
 0000:14BB       $RMDIR
 0000:16AF       $SETBLOCK
 0000:1282       $SETDPB
 0000:1165       $SET_CTRL_C_TRAPPING
 0000:0CDF       $SET_CURRENT_PDB
 0000:2CA5       $SET_DATE
 0000:121C       $SET_DEFAULT_DRIVE
 0000:11EF       $SET_DMA
 0000:123A       $SET_INTERRUPT_VECTOR
 0000:2CD6       $SET_TIME
 0000:115E       $SET_VERIFY_ON_WRITE
 0000:0E20       $SLEAZEFUNC
 0000:0E22       $SLEAZEFUNCDL
 0000:360F       $STD_AUX_INPUT
 0000:362C       $STD_AUX_OUTPUT
 0000:3573       $STD_CON_INPUT
 0000:382C       $STD_CON_INPUT_FLUSH
 0000:3646       $STD_CON_INPUT_NO_ECHO
 0000:3822       $STD_CON_INPUT_STATUS
 0000:357C       $STD_CON_OUTPUT
 0000:3661       $STD_CON_STRING_INPUT
 0000:3655       $STD_CON_STRING_OUTPUT
 0000:3632       $STD_PRINTER_OUTPUT
 0000:3B2F       $UNLINK
 0000:34DE       $WAIT
 0000:3F43       $WRITE
 0000:0E5A       ABORT_INNER
 0000:0D18       ABSDRD
 0000:0D66       ABSDWRT
 0000:39F4       ACCESS_PATH
 0000:2421       ADDREC
 0000:29DA       ALLOCATE
 0000:00ED       ALLOCMETHOD
 0000:1564       ARENA_FREE_PROCESS
 0000:00EE       ARENA_HEAD
 0000:1587       ARENA_NEXT
 0000:0341       ATTRIB
 0000:09AC       AUXSTACK
 0000:3721       BACKSP
 0000:00F8       BCLOCK
 0000:00FC       BCON
 0000:00E9       BESTARENA
 0000:2287       BREAKDOWN
 0000:0103       BUFFHEAD
 0000:35FA       BUFOUT
 0000:28AD       BUFRD
 0000:287E       BUFSEC
 0000:2C4C       BUFWRITE
 0000:28DF       BUFWRT
 0000:18FB       BUILDDIR
 0000:33E6       BUILDFCB
 0000:039F       BYTCNT1
 0000:03A1       BYTCNT2
 0000:039B       BYTPOS
 0000:0399       BYTSECPOS
 0000:013F       CALLBPB
 0000:0143       CALLDEVAD
 0000:013A       CALLMED
 0000:013B       CALLRBYT
 0000:013F       CALLSCNT
 0000:013B       CALLXAD
 0000:0B1E       CALL_ENTRY
 0000:00D8       CARPOS
 0000:00DE       CHARCO
 0000:31A3       CHARHARD
 0000:158E       CHECK_SIGNATURE
 0000:349B       CHK
 0000:03BC       CINDSAV
 0000:03B8       CINSAV
 0000:0370       CLUSFAC
 0000:038F       CLUSNUM
 0000:0375       CLUSSAVE
 0000:0377       CLUSSEC
 0000:0373       CLUSSPLIT
 0000:0128       CNTCFLAG
 0000:30F6       CNTCHAND
 0000:15A0       COALESCE
 0000:0B15       COMMAND
 0000:02A6       CONBUF
 0000:03C6       CONC_SPSAVE
 0000:0126       CONSWAP
 0000:00DC       CONTPOS
 0000:0365       CONTSTK
 0000:3793       COPYLIN
 0000:379E       COPYONE
 0000:3799       COPYSTR
 0000:03BD       COUTDSAV
 0000:03BE       COUTSAV
 0000:0189       CREATEPDB
 0000:035E       CREATING
 0000:36FF       CRLF
 0000:381D       CTRLZ
 0000:03AF       CURBUF
 0000:0120       CURDRV
 0000:0187       CURRENTPDB
 0000:01A0       CURRENT_COUNTRY
 0000:3859       DATE16
 0000:0119       DAY
 0000:011D       DAYCNT
 0000:035F       DELALL
 0000:012D       DEVCALL
 0000:0335       DEVFCB
 0000:00E6       DEVICE_AVAILABILITY
 0000:032F       DEVIOBUF
 0000:1833       DEVIOCALL
 0000:1836       DEVIOCALL2
 0000:1854       DEVNAME
 0000:037D       DEVPT
 0000:0004       DEVSTRING
 0000:0003       DEVSTRLEN
 0000:00D6       DIDCTRLC
 0000:20E1       DIRREAD
 0000:0391       DIRSEC
 0000:0393       DIRSTART
 0000:1AD4       DIR_SEARCH
 0000:22C7       DISKREAD
 0000:2432       DISKWRITE
 0000:018C       DIVMES
 0000:019F       DIVMESLEN
 0000:3160       DIVOV
 0000:00DF       DMAADD
 0000:3909       DODATE
 0000:2E9A       DOOPEN
 0000:00F0       DPBHEAD
 0000:2143       DREAD
 0000:0371       DRIVESPEC
 0000:016A       DSKCHRET
 0000:0368       DSKERR
 0000:2158       DSKREAD
 0000:0A4C       DSKSTACK
 0000:3029       DSKSTATCHK
 0000:015D       DSKSTCALL
 0000:016F       DSKSTCNT
 0000:015F       DSKSTCOM
 0000:0160       DSKSTST
 0000:217C       DSKWRITE
 0000:38EC       DSLIDE
 0000:398D       DSUM
 0000:2169       DWRITE
 0000:3815       ENTERINS
 0000:03A5       ENTFREE
 0000:03A7       ENTLAST
 0000:0124       ERRORMODE
 0000:0DE4       ESCCHAR
 0000:0331       EXITHOLD
 0000:3815       EXITINS
 0000:03C8       EXIT_CODE
 0000:03CA       EXIT_TYPE
 0000:035D       EXTFCB
 0000:31FA       FATAL
 0000:31FE       FATAL1
 0000:037B       FATBYT
 0000:2719       FATREAD
 0000:2122       FATSECRD
 0000:270D       FAT_OPERATION
 0000:2F12       FCB_CLOSE_INNER
 0000:3409       FCB_MOVE
 0000:29A9       FIGREC
 0000:19BB       FINDENTRY
 0000:19B0       FINDNAME
 0000:1CE1       FINDPATH
 0000:3A0A       FIND_FREE_JFN
 0000:3A23       FIND_FREE_SFN
 0000:2D59       FINNOSAV
 0000:00E7       FIRSTARENA
 0000:211A       FIRSTCLUSTER
 0000:2C11       FLUSHBUF
 0000:2847       FNDCLUS
 0000:0360       FOUNDDEL
 0000:3559       FUNCTIONHANDLERS
 0000:354C       FUNCTIONKEYS
 0000:189A       GETBP
 0000:2B6F       GETBUFFR
 0000:2B71       GETBUFFRB
 0000:369C       GETCH
 0000:1AD4       GETCURRDIR
 0000:1A5C       GETENT
 0000:1A59       GETENTRY
 0000:2A8C       GETEOF
 0000:199E       GETFILE
 0000:3482       GETLET
 0000:19AB       GETNAME
 0000:1BE6       GETPATH
 0000:29BA       GETREC
 0000:2836       GETRRPOS
 0000:2833       GETRRPOS1
 0000:20CD       GETTHISDRV
 0000:20BA       GET_IO_FCB
 0000:3E64       GET_JFN_POINTER
 0000:2833       GET_RANDOM_RECORD
 0000:3E50       GET_SF_FROM_JFN
 0000:3E25       GET_SF_FROM_SFN
 0000:0C24       GET_USER_STACK
 0000:03AB       GROWCNT
 0000:31B9       HARDERR
 0000:0127       IDLEINT
 0000:0226       INBUF
 0000:0123       INDOS
 0000:0374       INSMODE
 0000:01A2       INTERNATIONAL_TABLE
 0000:0CFC       INULDEV
 0000:0147       IOCALL
 0000:1703       IOFUNC
 0000:0154       IOMED
 0000:0154       IORCHR
 0000:0159       IOSCNT
 0000:015B       IOSSEC
 0000:0AEC       IOSTACK
 0000:0155       IOXAD
 0000:0B1D       IRET
 0000:370E       KILNEW
 0000:00EB       LASTARENA
 0000:0129       LASTBUFFER
 0000:0121       LASTENT
 0000:038D       LASTPOS
 0000:0BD5       LEAVE
 0000:018A       LEAVEADDR
 0000:1E8E       LOAD
 0000:3468       LODNAME
 0000:32F1       MAKEFCB
 0000:1B44       MAKENODE
 0000:26A2       MAPCLUSTER
 0000:1DB1       MATCHATTRIBUTES
 0000:4390       MEMSTRT
 0000:017B       MONTAB
 0000:011A       MONTH
 0000:340E       MOVNAME
 0000:3409       MOVNAMENOSET
 0000:0335       NAME1
 0000:0342       NAME2
 0000:034F       NAME3
 0000:33A8       NAMETRANS
 0000:190C       NEWDIR
 0000:2F9F       NEWENTRY
 0000:0385       NEXTADD
 0000:19FE       NEXTENT
 0000:1A87       NEXTENTRY
 0000:2921       NEXTSEC
 0000:00D5       NOSETDIR
 0000:0AEE       NSP
 0000:0AEC       NSS
 0000:0107       NULDEV
 0000:03B4       NULLDEVPT
 0000:0100       NUMIO
 0000:03A9       NXTCLUSNUM
 0000:0E0C       OEMFUNCTIONKEY
 0000:2951       OPTIMIZE
 0000:357E       OUT
 0000:1012       OUTMES
 0000:263D       PACK
 0000:34D7       PATHCHRCMP
 0000:00DA       PFLAG
 0000:2AD0       PLACEBUF
 0000:2B2B       PLACEHEAD
 0000:2B60       POINTCOMP
 0000:3EEE       POPDMA
 0000:0379       PREREAD
 0000:3F03       PTR_NORMALIZE
 0000:3EBB       PUSHDMA
 0000:0B11       QUIT
 0000:0FD2       RAWOUT
 0000:0FF8       RAWOUT2
 0000:036A       READOP
 0000:387E       READTIME
 0000:3168       REALDIVOV
 0000:038B       RECCNT
 0000:0387       RECPOS
 0000:1245       RECSET
 0000:0B70       REDISP
 0000:3801       REEDIT
 0000:2A7A       RELBLKS
 0000:2A78       RELEASE
 0000:327C       RESET_ENVIRONMENT
 0000:2A68       RESTFATBYT
 0000:0C00       RESTORE_WORLD
 0000:1CDC       ROOTPATH
 0000:0372       ROOTSTART
 0000:03C2       SAVEBX
 0000:03C4       SAVEDS
 0000:0C14       SAVE_WORLD
 0000:2AC2       SCANPLACE
 0000:199E       SEARCH
 0000:0367       SECCLUSPOS
 0000:03A3       SECCNT
 0000:0395       SECPOS
 0000:1B1A       SETDIRSRCH
 0000:197B       SETDOTENT
 0000:23C5       SETFCB
 0000:1096       SETMEM
 0000:18BC       SETREAD
 0000:21AB       SETUP
 0000:2A99       SETVISIT
 0000:18EF       SETWRITE
 0000:38F8       SETYEAR
 0000:00F4       SFT_ADDR
 0000:37BC       SKIPONE
 0000:37C6       SKIPSTR
 0000:2AB2       SKIPVISIT
 0000:286B       SKPCLP
 0000:0CF1       SNULDEV
 0000:00D7       SPACEFLAG
 0000:309D       SPOOLINT
 0000:19CB       SRCH
 0000:00D9       STARTPOS
 0000:1D9D       STARTSRCH
 0000:30B2       STATCHK
 0000:351A       STAY_RESIDENT
 0000:1FC5       STORE
 0000:1DBE       SWAPBACK
 0000:1E0E       SWAPCON
 0000:00E5       SWITCH_CHARACTER
 0000:40E3       SYSBUF
 0000:00F0       SYSINITVAR
 0000:0B11       SYSTEM_CALL
 0000:0D8C       SYS_RETURN
 0000:0D96       SYS_RET_ERR
 0000:0D8C       SYS_RET_OK
 0000:35D9       TAB
 0000:036C       THISDPB
 0000:036B       THISDRV
 0000:0381       THISFCB
 0000:0329       TIMEBUF
 0000:0369       TRANS
 0000:378C       TWOESC
 0000:2617       UNPACK
 0000:0361       USER_SP
 0000:0363       USER_SS
 0000:3997       VALIDATE_PATH
 0000:0397       VALSEC
 0000:00DB       VERFLG
 0000:03B3       VOLID
 0000:011F       WEEKDAY
 0000:0125       WPERR
 0000:011B       YEAR
 0000:0173       YRTAB

  Address         Publics by Value

 0000:0003       DEVSTRLEN
 0000:0004       DEVSTRING
 0000:00D5       NOSETDIR
 0000:00D6       DIDCTRLC
 0000:00D7       SPACEFLAG
 0000:00D8       CARPOS
 0000:00D9       STARTPOS
 0000:00DA       PFLAG
 0000:00DB       VERFLG
 0000:00DC       CONTPOS
 0000:00DE       CHARCO
 0000:00DF       DMAADD
 0000:00E5       SWITCH_CHARACTER
 0000:00E6       DEVICE_AVAILABILITY
 0000:00E7       FIRSTARENA
 0000:00E9       BESTARENA
 0000:00EB       LASTARENA
 0000:00ED       ALLOCMETHOD
 0000:00EE       ARENA_HEAD
 0000:00F0       SYSINITVAR
 0000:00F0       DPBHEAD
 0000:00F4       SFT_ADDR
 0000:00F8       BCLOCK
 0000:00FC       BCON
 0000:0100       NUMIO
 0000:0103       BUFFHEAD
 0000:0107       NULDEV
 0000:0119       DAY
 0000:011A       MONTH
 0000:011B       YEAR
 0000:011D       DAYCNT
 0000:011F       WEEKDAY
 0000:0120       CURDRV
 0000:0121       LASTENT
 0000:0123       INDOS
 0000:0124       ERRORMODE
 0000:0125       WPERR
 0000:0126       CONSWAP
 0000:0127       IDLEINT
 0000:0128       CNTCFLAG
 0000:0129       LASTBUFFER
 0000:012D       DEVCALL
 0000:013A       CALLMED
 0000:013B       CALLRBYT
 0000:013B       CALLXAD
 0000:013F       CALLBPB
 0000:013F       CALLSCNT
 0000:0143       CALLDEVAD
 0000:0147       IOCALL
 0000:0154       IOMED
 0000:0154       IORCHR
 0000:0155       IOXAD
 0000:0159       IOSCNT
 0000:015B       IOSSEC
 0000:015D       DSKSTCALL
 0000:015F       DSKSTCOM
 0000:0160       DSKSTST
 0000:016A       DSKCHRET
 0000:016F       DSKSTCNT
 0000:0173       YRTAB
 0000:017B       MONTAB
 0000:0187       CURRENTPDB
 0000:0189       CREATEPDB
 0000:018A       LEAVEADDR
 0000:018C       DIVMES
 0000:019F       DIVMESLEN
 0000:01A0       CURRENT_COUNTRY
 0000:01A2       INTERNATIONAL_TABLE
 0000:0226       INBUF
 0000:02A6       CONBUF
 0000:0329       TIMEBUF
 0000:032F       DEVIOBUF
 0000:0331       EXITHOLD
 0000:0335       DEVFCB
 0000:0335       NAME1
 0000:0341       ATTRIB
 0000:0342       NAME2
 0000:034F       NAME3
 0000:035D       EXTFCB
 0000:035E       CREATING
 0000:035F       DELALL
 0000:0360       FOUNDDEL
 0000:0361       USER_SP
 0000:0363       USER_SS
 0000:0365       CONTSTK
 0000:0367       SECCLUSPOS
 0000:0368       DSKERR
 0000:0369       TRANS
 0000:036A       READOP
 0000:036B       THISDRV
 0000:036C       THISDPB
 0000:0370       CLUSFAC
 0000:0371       DRIVESPEC
 0000:0372       ROOTSTART
 0000:0373       CLUSSPLIT
 0000:0374       INSMODE
 0000:0375       CLUSSAVE
 0000:0377       CLUSSEC
 0000:0379       PREREAD
 0000:037B       FATBYT
 0000:037D       DEVPT
 0000:0381       THISFCB
 0000:0385       NEXTADD
 0000:0387       RECPOS
 0000:038B       RECCNT
 0000:038D       LASTPOS
 0000:038F       CLUSNUM
 0000:0391       DIRSEC
 0000:0393       DIRSTART
 0000:0395       SECPOS
 0000:0397       VALSEC
 0000:0399       BYTSECPOS
 0000:039B       BYTPOS
 0000:039F       BYTCNT1
 0000:03A1       BYTCNT2
 0000:03A3       SECCNT
 0000:03A5       ENTFREE
 0000:03A7       ENTLAST
 0000:03A9       NXTCLUSNUM
 0000:03AB       GROWCNT
 0000:03AF       CURBUF
 0000:03B3       VOLID
 0000:03B4       NULLDEVPT
 0000:03B8       CINSAV
 0000:03BC       CINDSAV
 0000:03BD       COUTDSAV
 0000:03BE       COUTSAV
 0000:03C2       SAVEBX
 0000:03C4       SAVEDS
 0000:03C6       CONC_SPSAVE
 0000:03C8       EXIT_CODE
 0000:03CA       EXIT_TYPE
 0000:09AC       AUXSTACK
 0000:0A4C       DSKSTACK
 0000:0AEC       IOSTACK
 0000:0AEC       NSS
 0000:0AEE       NSP
 0000:0B11       QUIT
 0000:0B11       SYSTEM_CALL
 0000:0B15       COMMAND
 0000:0B1D       IRET
 0000:0B1E       CALL_ENTRY
 0000:0B70       REDISP
 0000:0BD5       LEAVE
 0000:0C00       RESTORE_WORLD
 0000:0C14       SAVE_WORLD
 0000:0C24       GET_USER_STACK
 0000:0CDF       $SET_CURRENT_PDB
 0000:0CE5       $GET_CURRENT_PDB
 0000:0CF1       SNULDEV
 0000:0CFC       INULDEV
 0000:0D18       ABSDRD
 0000:0D66       ABSDWRT
 0000:0D8C       SYS_RETURN
 0000:0D8C       SYS_RET_OK
 0000:0D96       SYS_RET_ERR
 0000:0DE4       ESCCHAR
 0000:0E0C       OEMFUNCTIONKEY
 0000:0E20       $SLEAZEFUNC
 0000:0E22       $SLEAZEFUNCDL
 0000:0E52       $ABORT
 0000:0E5A       ABORT_INNER
 0000:0E7C       $DIR_SEARCH_FIRST
 0000:0EDD       $DIR_SEARCH_NEXT
 0000:0F13       $GET_FCB_FILE_LENGTH
 0000:0F51       $GET_FCB_POSITION
 0000:0F64       $DISK_RESET
 0000:0F92       $RAW_CON_IO
 0000:0FBE       $RAW_CON_INPUT
 0000:0FD2       RAWOUT
 0000:0FF8       RAWOUT2
 0000:1012       OUTMES
 0000:101E       $PARSE_FILE_DESCRIPTOR
 0000:1029       $DUP_PDB
 0000:102F       $CREATE_PROCESS_DATA_BLOCK
 0000:1096       SETMEM
 0000:10E4       $GET_VERSION
 0000:10FD       $INTERNATIONAL
 0000:1159       $GET_VERIFY_ON_WRITE
 0000:115E       $SET_VERIFY_ON_WRITE
 0000:1165       $SET_CTRL_C_TRAPPING
 0000:1184       $GET_INDOS_FLAG
 0000:1190       $GET_IN_VARS
 0000:119C       $GET_DRIVE_FREESPACE
 0000:11DB       $GET_DMA
 0000:11EF       $SET_DMA
 0000:11FA       $GET_DEFAULT_DPB
 0000:11FC       $GET_DPB
 0000:1217       $GET_DEFAULT_DRIVE
 0000:121C       $SET_DEFAULT_DRIVE
 0000:122A       $GET_INTERRUPT_VECTOR
 0000:123A       $SET_INTERRUPT_VECTOR
 0000:1245       RECSET
 0000:1250       $CHAR_OPER
 0000:1282       $SETDPB
 0000:12EB       $MKDIR
 0000:139B       $CHDIR
 0000:14BB       $RMDIR
 0000:1564       ARENA_FREE_PROCESS
 0000:1587       ARENA_NEXT
 0000:158E       CHECK_SIGNATURE
 0000:15A0       COALESCE
 0000:15C2       $ALLOC
 0000:16AF       $SETBLOCK
 0000:16D0       $DEALLOC
 0000:16E7       $ALLOCOPER
 0000:1703       IOFUNC
 0000:1833       DEVIOCALL
 0000:1836       DEVIOCALL2
 0000:1854       DEVNAME
 0000:189A       GETBP
 0000:18BC       SETREAD
 0000:18EF       SETWRITE
 0000:18FB       BUILDDIR
 0000:190C       NEWDIR
 0000:197B       SETDOTENT
 0000:199E       SEARCH
 0000:199E       GETFILE
 0000:19AB       GETNAME
 0000:19B0       FINDNAME
 0000:19BB       FINDENTRY
 0000:19CB       SRCH
 0000:19FE       NEXTENT
 0000:1A59       GETENTRY
 0000:1A5C       GETENT
 0000:1A87       NEXTENTRY
 0000:1AD4       GETCURRDIR
 0000:1AD4       DIR_SEARCH
 0000:1B1A       SETDIRSRCH
 0000:1B44       MAKENODE
 0000:1BE6       GETPATH
 0000:1CDC       ROOTPATH
 0000:1CE1       FINDPATH
 0000:1D9D       STARTSRCH
 0000:1DB1       MATCHATTRIBUTES
 0000:1DBE       SWAPBACK
 0000:1E0E       SWAPCON
 0000:1E8E       LOAD
 0000:1FC5       STORE
 0000:20BA       GET_IO_FCB
 0000:20CD       GETTHISDRV
 0000:20E1       DIRREAD
 0000:211A       FIRSTCLUSTER
 0000:2122       FATSECRD
 0000:2143       DREAD
 0000:2158       DSKREAD
 0000:2169       DWRITE
 0000:217C       DSKWRITE
 0000:21AB       SETUP
 0000:2287       BREAKDOWN
 0000:22C7       DISKREAD
 0000:23C5       SETFCB
 0000:2421       ADDREC
 0000:2432       DISKWRITE
 0000:2617       UNPACK
 0000:263D       PACK
 0000:26A2       MAPCLUSTER
 0000:270D       FAT_OPERATION
 0000:2719       FATREAD
 0000:2833       GET_RANDOM_RECORD
 0000:2833       GETRRPOS1
 0000:2836       GETRRPOS
 0000:2847       FNDCLUS
 0000:286B       SKPCLP
 0000:287E       BUFSEC
 0000:28AD       BUFRD
 0000:28DF       BUFWRT
 0000:2921       NEXTSEC
 0000:2951       OPTIMIZE
 0000:29A9       FIGREC
 0000:29BA       GETREC
 0000:29DA       ALLOCATE
 0000:2A68       RESTFATBYT
 0000:2A78       RELEASE
 0000:2A7A       RELBLKS
 0000:2A8C       GETEOF
 0000:2A99       SETVISIT
 0000:2AB2       SKIPVISIT
 0000:2AC2       SCANPLACE
 0000:2AD0       PLACEBUF
 0000:2B2B       PLACEHEAD
 0000:2B60       POINTCOMP
 0000:2B6F       GETBUFFR
 0000:2B71       GETBUFFRB
 0000:2C11       FLUSHBUF
 0000:2C4C       BUFWRITE
 0000:2C88       $GET_DATE
 0000:2CA5       $SET_DATE
 0000:2CC5       $GET_TIME
 0000:2CD6       $SET_TIME
 0000:2D1D       $FCB_SEQ_READ
 0000:2D25       $FCB_SEQ_WRITE
 0000:2D35       $FCB_RANDOM_READ
 0000:2D3D       $FCB_RANDOM_WRITE
 0000:2D45       $FCB_RANDOM_READ_BLOCK
 0000:2D4D       $FCB_RANDOM_WRITE_BLOCK
 0000:2D59       FINNOSAV
 0000:2D8D       $FCB_DELETE
 0000:2E0B       $FCB_RENAME
 0000:2E97       $FCB_OPEN
 0000:2E9A       DOOPEN
 0000:2EFD       $FCB_CLOSE
 0000:2F12       FCB_CLOSE_INNER
 0000:2F6F       $FCB_CREATE
 0000:2F9F       NEWENTRY
 0000:3029       DSKSTATCHK
 0000:309D       SPOOLINT
 0000:30B2       STATCHK
 0000:30F6       CNTCHAND
 0000:3160       DIVOV
 0000:3168       REALDIVOV
 0000:31A3       CHARHARD
 0000:31B9       HARDERR
 0000:31FA       FATAL
 0000:31FE       FATAL1
 0000:327C       RESET_ENVIRONMENT
 0000:32F1       MAKEFCB
 0000:33A8       NAMETRANS
 0000:33E6       BUILDFCB
 0000:3409       FCB_MOVE
 0000:3409       MOVNAMENOSET
 0000:340E       MOVNAME
 0000:3468       LODNAME
 0000:3482       GETLET
 0000:349B       CHK
 0000:34D7       PATHCHRCMP
 0000:34DE       $WAIT
 0000:34EC       $EXEC
 0000:34F1       $KEEP_PROCESS
 0000:351A       STAY_RESIDENT
 0000:3527       $EXIT
 0000:354C       FUNCTIONKEYS
 0000:3559       FUNCTIONHANDLERS
 0000:3573       $STD_CON_INPUT
 0000:357C       $STD_CON_OUTPUT
 0000:357E       OUT
 0000:35D9       TAB
 0000:35FA       BUFOUT
 0000:360F       $STD_AUX_INPUT
 0000:362C       $STD_AUX_OUTPUT
 0000:3632       $STD_PRINTER_OUTPUT
 0000:3646       $STD_CON_INPUT_NO_ECHO
 0000:3655       $STD_CON_STRING_OUTPUT
 0000:3661       $STD_CON_STRING_INPUT
 0000:369C       GETCH
 0000:36FF       CRLF
 0000:370E       KILNEW
 0000:3721       BACKSP
 0000:378C       TWOESC
 0000:3793       COPYLIN
 0000:3799       COPYSTR
 0000:379E       COPYONE
 0000:37BC       SKIPONE
 0000:37C6       SKIPSTR
 0000:3801       REEDIT
 0000:3815       ENTERINS
 0000:3815       EXITINS
 0000:381D       CTRLZ
 0000:3822       $STD_CON_INPUT_STATUS
 0000:382C       $STD_CON_INPUT_FLUSH
 0000:3859       DATE16
 0000:387E       READTIME
 0000:38EC       DSLIDE
 0000:38F8       SETYEAR
 0000:3909       DODATE
 0000:398D       DSUM
 0000:3997       VALIDATE_PATH
 0000:39F4       ACCESS_PATH
 0000:3A0A       FIND_FREE_JFN
 0000:3A23       FIND_FREE_SFN
 0000:3A52       $OPEN
 0000:3B2F       $UNLINK
 0000:3B66       $CREAT
 0000:3BA6       $DUP
 0000:3BCD       $DUP2
 0000:3BE3       $CHMOD
 0000:3C32       $CURRENT_DIR
 0000:3C7D       $RENAME
 0000:3D2F       $FIND_FIRST
 0000:3DDF       $FIND_NEXT
 0000:3E25       GET_SF_FROM_SFN
 0000:3E50       GET_SF_FROM_JFN
 0000:3E64       GET_JFN_POINTER
 0000:3E76       $CLOSE
 0000:3EBB       PUSHDMA
 0000:3EEE       POPDMA
 0000:3F03       PTR_NORMALIZE
 0000:3F16       $READ
 0000:3F43       $WRITE
 0000:3F6C       $LSEEK
 0000:3FBE       $IOCTL
 0000:40AA       $FILE_TIMES
 0000:40E3       SYSBUF
 0000:4390       MEMSTRT
