

Warning: no stack segment

 Start  Stop   Length Name                   Class
 00000H 0072FH 00730H CODERES                
 00730H 00C1FH 004F0H DATARES                
 00C20H 00CCFH 000B0H ENVIRONMENT            
 00CD0H 0117FH 004B0H INIT                   
 01180H 01180H 00000H TAIL                   
 01180H 0374FH 025D0H TRANCODE               
 03750H 03D0FH 005C0H TRANDATA               
 03D10H 041C9H 004BAH TRANSPACE              
 041D0H 041D0H 00000H TRANTAIL               
 041D0H 0471FH 00550H ZEXEC_CODE             
 04720H 0475FH 00040H ZEXEC_DATA             

 Origin   Group
 041D:0   EGROUP
 0000:0   RESGROUP
 0118:0   TRANGROUP

  Address         Publics by Name

 0118:12E3       $CHDIR
 041D:0000       $EXEC
 0118:0A42       $EXIT
 0118:0BBA       $FOR
 0118:0CA3       $IF
 0118:1316       $MKDIR
 0118:134B       $RMDIR
 0118:2A3B       ACRLF
 0118:0884       ADD_NAME_TO_ENVIRONMENT
 0118:086E       ADD_PROMPT
 0118:1600       ALLOC_TPA
 0118:2D43       ALLSWITCH
 0118:2F8D       APPEND
 0118:2D3F       ARG1S
 0118:2D41       ARG2S
 0118:2D3C       ARGC
 0118:2D43       ARGTS
 0118:2F92       ASCII
 0000:05B7       ASKEND
 0118:2A05       BADARGS
 0118:25D0       BADBAT
 0118:2864       BADCD
 0118:1130       BADCDERR
 0000:114D       BADCOMLKMES
 0118:29E9       BADCPMES
 0118:2791       BADDAT
 0118:2929       BADDEV
 0118:272B       BADDRV
 0000:0859       BADFAT
 0118:293A       BADLAB
 0118:2878       BADMKD
 0118:2625       BADNAM
 0118:290A       BADPMES
 0118:2895       BADRMD
 0118:2768       BADSWT
 0118:27C4       BADTIM
 0118:28CC       BAD_ON_OFF
 0000:09AF       BATBYT
 0000:097C       BATCH
 0118:0E77       BATCLOSE
 0118:2F98       BATHAND
 0000:097E       BATLOC
 0118:0E81       BATOPEN
 0118:2F8F       BINARY
 0118:2E6B       BITS
 0000:0938       BMEMMES
 0118:244B       BUILDNAME
 0118:1F65       BUILDPATH
 0118:2D47       BYTCNT
 0118:271D       BYTMES_POST
 0118:272A       BYTMES_PRE
 0118:0F3F       CATALOG
 0000:0858       CDEVAT
 0118:06E8       CERROR
 0118:2D45       CFLAG
 0118:2D50       CHARBUF
 0118:0708       CHKCNT
 0118:2D38       CHKDRV
 0000:0587       CHKSUM
 0118:217F       CLOSEDEST
 0118:128A       CLS
 0118:2A42       CLSSTRING
 0118:1B3D       CNTRLC
 0118:2DA9       COM
 0000:0869       COMBAD
 0118:2C13       COMBUF
 0000:09AE       COMDRV
 0000:088C       COMLET
 0118:012C       COMMAND
 0118:204F       COMPNAME
 0000:0982       COMSPEC
 0118:2D3D       COMSW
 0118:2A8B       COMTAB
 0000:0B6B       COM_FCB1
 0000:0B6F       COM_FCB2
 0000:0B67       COM_PTR
 0118:2D3B       CONCAT
 0000:0CD0       CONPROC
 0000:029C       CONTC
 0000:02B0       CONTCTERM
 0118:2344       COPERR
 0118:2701       COPIED_POST
 0118:2712       COPIED_PRE
 0118:1CA2       COPY
 0118:247A       CPARSE
 0118:2F94       CPDATE
 0118:2F96       CPTIME
 0118:1139       CRENAME
 0118:10F7       CRLF2
 0118:1A54       CRPRINT
 0118:14EC       CTIME
 0118:29CB       CTRLCMES
 0118:0A70       CTTY
 0118:27B0       CURDAT_MID
 0118:27B0       CURDAT_POST
 0118:27A0       CURDAT_PRE
 0118:2D3A       CURDRV
 0118:27E3       CURTIM_POST
 0118:27D3       CURTIM_PRE
 0000:0C12       DATARESEND
 0118:1412       DATE
 0118:1382       DATINIT
 0118:2A3E       DBACK
 0000:088E       DEFMSG
 0118:08E2       DELETE_PATH
 0118:1867       DELIM
 0118:2DAC       DEST
 0118:2E7F       DESTBUF
 0118:2D46       DESTCLOSED
 0118:2DDC       DESTDIR
 0118:2DDC       DESTFCB
 0118:2DA0       DESTFCB2
 0118:2ED3       DESTHAND
 0118:2E7E       DESTINFO
 0118:2ED5       DESTISDEV
 0118:2E7A       DESTISDIR
 0118:2DD1       DESTNAME
 0118:2E7B       DESTSIZ
 0118:2D41       DESTSWITCH
 0118:2E7C       DESTTAIL
 0118:2E7A       DESTVARS
 0000:07F8       DEVEMES
 0000:0800       DEVENAM
 0118:2A24       DEVWMES
 0118:2E1C       DIRBUF
 0118:2D2F       DIRCHAR
 0118:28E2       DIRHEAD_POST
 0118:28E5       DIRHEAD_PRE
 0118:2713       DIRMES_POST
 0118:271C       DIRMES_PRE
 0118:17A4       DISP32BITS
 0118:179C       DISPSIZE
 0118:280C       DMES
 0118:035B       DOCOM
 0118:035E       DOCOM1
 0118:20BA       DOCOPY
 0118:0450       DRVBAD
 0000:07F5       DRVLET
 0000:0886       DRVMSG
 0000:07EE       DRVNUM
 0000:05E8       DSKERR
 0118:1AF3       ECHO
 0000:09B7       ECHOFLAG
 0118:29E0       ECHOMES
 0000:0C3E       ECOMSPEC
 0118:2F9C       ELCNT
 0118:2F9D       ELPOS
 0000:08BA       ENDBATMES
 0118:1E29       ENDCOPY
 0118:2682       ENVERR
 0000:0CD0       ENVIREND
 0000:0B65       ENVIRSEG
 0118:1111       ERASE
 0000:0977       ERRCD_24
 0000:07E4       ERRMES
 0118:1A85       ERROR_OUTPUT
 0118:1A4B       ERROR_PRINT
 0000:08DE       EXEBAD
 0000:08D1       EXECEMES
 0000:0251       EXECHK
 0118:2CD9       EXECPATH
 0118:2D30       EXEC_ADDR
 041D:04EA       EXEC_ALLOC
 0000:0B65       EXEC_BLOCK
 041D:04E1       EXEC_DEALLOC
 041D:04F5       EXEC_DO_CHANGE_OWNER
 041D:04E0       EXEC_LONG_RET
 0000:0291       EXEC_WAIT
 0118:2E1C       EXEFCB
 0000:0BFA       EXESEG
 0000:0C00       EXESUM
 0000:09B4       EXTCOM
 0000:0286       EXT_EXEC
 0118:19CF       FCB_TO_ASCZ
 0118:2D4E       FILECNT
 0118:2D39       FILTYP
 0118:090C       FIND_NAME_IN_ENVIRONMENT
 0118:0904       FIND_PATH
 0118:0909       FIND_PROMPT
 0118:2ED6       FIRSTDEST
 0118:224A       FLSHFIL
 0000:09EA       FORCOM
 0000:0A48       FORFCB
 0000:09C0       FORFLAG
 0118:295B       FORNESTMES
 0118:0AE2       FORPROC
 0000:0A45       FORPTR
 0000:09C2       FORSET
 0000:0A47       FORUFCB
 0000:0A44       FORVAR
 0118:15F5       FREE_TPA
 0000:0954       FRETMES
 0118:2D4B       FRSTSRCH
 0118:269D       FULDIR
 0118:2E73       FULLSCR
 0118:180F       GETBATBYT
 0000:04DB       GETCOMDSK2
 0118:1C25       GETDATE
 0118:02FE       GETKEYSTROKE
 0118:19F5       GETNUM
 041D:0538       GET_USER_STACK
 0118:0DEA       GOTO
 0118:2E1C       GOTOLEN
 0118:2851       GOTVOL
 0000:093E       HALTMES
 0000:0979       HANDLE01
 0118:2D28       HEADCALL
 0000:10C0       HEADER
 0118:2DA1       ID
 0118:2DA0       IDLEN
 0118:0D7B       IFERLEV
 0118:0D3D       IFEXISTS
 0118:0CED       IFNOT
 0118:2D39       IFNOTFLAG
 0118:2A6F       IFTAB
 0118:2999       INBDEV
 0118:2F8C       INEXACT
 0000:0B61       INPIPEPTR
 0118:2FAA       INTERNATVARS
 0000:0343       INT_2E
 0000:096F       INT_2E_RET
 0118:0EB5       IOSET
 0000:07E7       IOTYP
 0000:09B8       IO_SAVE
 0118:2D4C       LINCNT
 0118:2D4D       LINLEN
 0000:052D       LOADCOM
 0000:097B       LOADING
 0000:0374       LODCOM
 0000:03CF       LODCOM1
 0118:26D7       LOSTERR
 0000:0C06       LTPA
 0118:2ED7       MELCOPY
 0118:2ED8       MELSTART
 0000:09B0       MEMSIZ
 0000:074A       MESADD
 0000:0730       MESBAS
 0118:0EAD       MESTRAN
 0118:0959       MOVE_NAME
 0000:07DC       MREAD
 0000:07E0       MWRITE
 0000:0C04       MYSEG
 0000:0C0C       MYSEG1
 0000:0C10       MYSEG2
 0118:25E7       NEEDBAT
 0000:0876       NEEDCOM
 0118:27B1       NEWDAT
 0000:07F6       NEWLIN
 0118:27E4       NEWTIM
 0000:0905       NOCOM
 0000:0928       NOHANDMES
 0118:2668       NOSPACE
 0118:1AA2       NOTEST2
 0118:2657       NOTFND
 0118:0710       NOTFNDERR
 0118:2856       NOVOL
 0118:2F8E       NOWRITE
 0118:28F5       NULPATH
 0118:2D49       NXTADD
 0118:29C0       OFFMES
 0118:10F2       ONESPC
 0118:29C6       ONMES
 0118:1A26       OUT
 0118:1A15       OUT2
 0118:17E1       OUTBYTE
 0000:0B63       OUTPIPEPTR
 0118:26B3       OVERWR
 0000:0975       PARENT
 0118:2D3B       PARM1
 0118:2D3C       PARM2
 0000:0B73       PARMBUF
 0118:1975       PATH
 0118:1707       PATHCHRCMP
 0118:2E6D       PATHCNT
 0118:1715       PATHCRUNCH
 0118:2E6F       PATHPOS
 0000:0C30       PATHSTRING
 0118:2E71       PATHSW
 0118:28FE       PATH_TEXT
 0118:1104       PAUSE
 0118:2749       PAUSEMES
 0000:09BB       PERMCOM
 0000:0B45       PIPE1
 0000:0B53       PIPE2
 0118:2973       PIPEEMES
 0118:0775       PIPEERRSYN
 0000:0AC1       PIPEFILES
 0000:0AC0       PIPEFLAG
 0000:0AC2       PIPEPTR
 0000:0AC4       PIPESTR
 0118:2F93       PLUS
 0118:1628       PRESCAN
 0118:1A59       PRINT
 0118:1BBB       PRINTVOL
 0118:18E4       PRINT_B
 0118:18CE       PRINT_BACK
 0118:1BFE       PRINT_DATE
 0118:0A0C       PRINT_DEFAULT_DIRECTORY
 0118:09FC       PRINT_DRIVE
 0118:18D4       PRINT_EQ
 0118:18D8       PRINT_ESC
 0118:18DC       PRINT_G
 0118:18E0       PRINT_L
 0118:187A       PRINT_PROMPT
 0118:14FF       PRINT_TIME
 0118:123F       PRINT_VERSION
 0000:089B       PROMPT
 0118:2A47       PROMPT_TABLE
 0118:2903       PROMPT_TEXT
 0118:0A05       PWD
 0118:2E1C       PWDBUF
 0118:13AE       P_DATE
 0000:0966       RBADNAM
 0118:2D34       RCH_ADDR
 0118:2D39       RDEOF
 0000:0C09       RDIRCHAR
 0118:2640       RENERR
 0000:0842       REQUEST
 0118:2D2A       RESSEG
 0000:09BA       RESTDIR
 0000:04E1       RESTHAND
 041D:053F       RESTORE_CTRLC
 0118:11DA       RESTUDIR
 0118:11CC       RESTUDIR1
 0000:09B5       RETCODE
 0000:0A6F       RE_INSTR
 0000:0A98       RE_OUTSTR
 0000:0A97       RE_OUT_APP
 0118:2E75       ROM_CALL
 0118:2E78       ROM_CS
 0118:2E76       ROM_IP
 0000:06F9       RPRINT
 0000:0180       RSTACK
 0000:0C08       RSWITCHAR
 0000:0973       SAVE_PDB
 0000:04BF       SAVHAND
 0118:135C       SAVUDIR
 0118:135F       SAVUDIR1
 0118:2F36       SCANBUF
 0118:185F       SCANOFF
 0118:0978       SCAN_DOUBLE_NULL
 0118:0991       SCASB2
 0118:2E5F       SDIRBUF
 0118:20A9       SEARCH
 0118:209D       SEARCHNEXT
 0118:237E       SETASC
 0118:18E9       SETPATH
 0118:06FE       SETREST
 0118:06FC       SETREST1
 0000:059E       SETVECT
 0118:0DA9       SHIFT
 0000:09BC       SINGLECOM
 0118:2F9E       SKPDEL
 0118:2F9F       SOURCE
 0118:2D46       SPECDRV
 0118:2EDF       SRCBUF
 0118:2F33       SRCHAND
 0118:2EDE       SRCINFO
 0118:2F35       SRCISDEV
 0118:2EDA       SRCISDIR
 0118:2F8A       SRCPT
 0118:2EDB       SRCSIZ
 0118:2EDC       SRCTAIL
 0118:2EDA       SRCVARS
 0118:304A       STACK
 0118:2F9A       STARTEL
 0118:09A9       STORE_CHAR
 0118:0F34       STRCOMP
 0000:09B2       SUM
 0118:27F7       SUREMES
 0118:041A       SWITCH
 0118:2D2E       SWITCHAR
 0118:044B       SWLIST
 0118:294C       SYNTMES
 0000:0180       SYSCALL
 0000:0BF4       SYS_CALL
 0118:0104       TCOMMAND
 0118:2F91       TERMREAD
 0118:0ED2       TESTDOREIN
 0118:0EF6       TESTDOREOUT
 0000:048A       THEADFIX
 0000:08E8       TOOBIG
 0118:2D2C       TPA
 0118:2B88       TRANDATAEND
 0000:09AA       TRANS
 0118:304A       TRANSPACEEND
 0000:0C02       TRANVARS
 0000:045D       TREMCHECK
 0000:09AC       TRNSEG
 0118:1178       TYPEFIL
 0118:2B90       UCOMBUF
 0000:09C1       UFORDRV
 0118:0999       UPCONV
 0118:2C96       USERDIR1
 0000:0BFC       USER_SP
 0000:0BFE       USER_SS
 0118:1B6F       VERIFY
 0118:29D5       VERIMES
 0118:283E       VERMES_POST
 0118:2816       VERMES_PRE
 0118:1236       VERSION
 0000:09BE       VERVAL
 0118:283F       VOLMES
 0118:11E7       VOLUME
 0118:277C       WEEKTAB
 0118:2F90       WRITTEN
 0000:0BF8       ZEXEC
 041D:054E       ZEXECCODEEND
 041D:058E       ZEXECDATAEND
 0118:1A5E       ZPRINT

  Address         Publics by Value

 0000:0180       SYSCALL
 0000:0180       RSTACK
 0000:0251       EXECHK
 0000:0286       EXT_EXEC
 0000:0291       EXEC_WAIT
 0000:029C       CONTC
 0000:02B0       CONTCTERM
 0000:0343       INT_2E
 0000:0374       LODCOM
 0000:03CF       LODCOM1
 0000:045D       TREMCHECK
 0000:048A       THEADFIX
 0000:04BF       SAVHAND
 0000:04DB       GETCOMDSK2
 0000:04E1       RESTHAND
 0000:052D       LOADCOM
 0000:0587       CHKSUM
 0000:059E       SETVECT
 0000:05B7       ASKEND
 0000:05E8       DSKERR
 0000:06F9       RPRINT
 0000:0730       MESBAS
 0000:074A       MESADD
 0000:07DC       MREAD
 0000:07E0       MWRITE
 0000:07E4       ERRMES
 0000:07E7       IOTYP
 0000:07EE       DRVNUM
 0000:07F5       DRVLET
 0000:07F6       NEWLIN
 0000:07F8       DEVEMES
 0000:0800       DEVENAM
 0000:0842       REQUEST
 0000:0858       CDEVAT
 0000:0859       BADFAT
 0000:0869       COMBAD
 0000:0876       NEEDCOM
 0000:0886       DRVMSG
 0000:088C       COMLET
 0000:088E       DEFMSG
 0000:089B       PROMPT
 0000:08BA       ENDBATMES
 0000:08D1       EXECEMES
 0000:08DE       EXEBAD
 0000:08E8       TOOBIG
 0000:0905       NOCOM
 0000:0928       NOHANDMES
 0000:0938       BMEMMES
 0000:093E       HALTMES
 0000:0954       FRETMES
 0000:0966       RBADNAM
 0000:096F       INT_2E_RET
 0000:0973       SAVE_PDB
 0000:0975       PARENT
 0000:0977       ERRCD_24
 0000:0979       HANDLE01
 0000:097B       LOADING
 0000:097C       BATCH
 0000:097E       BATLOC
 0000:0982       COMSPEC
 0000:09AA       TRANS
 0000:09AC       TRNSEG
 0000:09AE       COMDRV
 0000:09AF       BATBYT
 0000:09B0       MEMSIZ
 0000:09B2       SUM
 0000:09B4       EXTCOM
 0000:09B5       RETCODE
 0000:09B7       ECHOFLAG
 0000:09B8       IO_SAVE
 0000:09BA       RESTDIR
 0000:09BB       PERMCOM
 0000:09BC       SINGLECOM
 0000:09BE       VERVAL
 0000:09C0       FORFLAG
 0000:09C1       UFORDRV
 0000:09C2       FORSET
 0000:09EA       FORCOM
 0000:0A44       FORVAR
 0000:0A45       FORPTR
 0000:0A47       FORUFCB
 0000:0A48       FORFCB
 0000:0A6F       RE_INSTR
 0000:0A97       RE_OUT_APP
 0000:0A98       RE_OUTSTR
 0000:0AC0       PIPEFLAG
 0000:0AC1       PIPEFILES
 0000:0AC2       PIPEPTR
 0000:0AC4       PIPESTR
 0000:0B45       PIPE1
 0000:0B53       PIPE2
 0000:0B61       INPIPEPTR
 0000:0B63       OUTPIPEPTR
 0000:0B65       EXEC_BLOCK
 0000:0B65       ENVIRSEG
 0000:0B67       COM_PTR
 0000:0B6B       COM_FCB1
 0000:0B6F       COM_FCB2
 0000:0B73       PARMBUF
 0000:0BF4       SYS_CALL
 0000:0BF8       ZEXEC
 0000:0BFA       EXESEG
 0000:0BFC       USER_SP
 0000:0BFE       USER_SS
 0000:0C00       EXESUM
 0000:0C02       TRANVARS
 0000:0C04       MYSEG
 0000:0C06       LTPA
 0000:0C08       RSWITCHAR
 0000:0C09       RDIRCHAR
 0000:0C0C       MYSEG1
 0000:0C10       MYSEG2
 0000:0C12       DATARESEND
 0000:0C30       PATHSTRING
 0000:0C3E       ECOMSPEC
 0000:0CD0       ENVIREND
 0000:0CD0       CONPROC
 0000:10C0       HEADER
 0000:114D       BADCOMLKMES
 0118:0104       TCOMMAND
 0118:012C       COMMAND
 0118:02FE       GETKEYSTROKE
 0118:035B       DOCOM
 0118:035E       DOCOM1
 0118:041A       SWITCH
 0118:044B       SWLIST
 0118:0450       DRVBAD
 0118:06E8       CERROR
 0118:06FC       SETREST1
 0118:06FE       SETREST
 0118:0708       CHKCNT
 0118:0710       NOTFNDERR
 0118:0775       PIPEERRSYN
 0118:086E       ADD_PROMPT
 0118:0884       ADD_NAME_TO_ENVIRONMENT
 0118:08E2       DELETE_PATH
 0118:0904       FIND_PATH
 0118:0909       FIND_PROMPT
 0118:090C       FIND_NAME_IN_ENVIRONMENT
 0118:0959       MOVE_NAME
 0118:0978       SCAN_DOUBLE_NULL
 0118:0991       SCASB2
 0118:0999       UPCONV
 0118:09A9       STORE_CHAR
 0118:09FC       PRINT_DRIVE
 0118:0A05       PWD
 0118:0A0C       PRINT_DEFAULT_DIRECTORY
 0118:0A42       $EXIT
 0118:0A70       CTTY
 0118:0AE2       FORPROC
 0118:0BBA       $FOR
 0118:0CA3       $IF
 0118:0CED       IFNOT
 0118:0D3D       IFEXISTS
 0118:0D7B       IFERLEV
 0118:0DA9       SHIFT
 0118:0DEA       GOTO
 0118:0E77       BATCLOSE
 0118:0E81       BATOPEN
 0118:0EAD       MESTRAN
 0118:0EB5       IOSET
 0118:0ED2       TESTDOREIN
 0118:0EF6       TESTDOREOUT
 0118:0F34       STRCOMP
 0118:0F3F       CATALOG
 0118:10F2       ONESPC
 0118:10F7       CRLF2
 0118:1104       PAUSE
 0118:1111       ERASE
 0118:1130       BADCDERR
 0118:1139       CRENAME
 0118:1178       TYPEFIL
 0118:11CC       RESTUDIR1
 0118:11DA       RESTUDIR
 0118:11E7       VOLUME
 0118:1236       VERSION
 0118:123F       PRINT_VERSION
 0118:128A       CLS
 0118:12E3       $CHDIR
 0118:1316       $MKDIR
 0118:134B       $RMDIR
 0118:135C       SAVUDIR
 0118:135F       SAVUDIR1
 0118:1382       DATINIT
 0118:13AE       P_DATE
 0118:1412       DATE
 0118:14EC       CTIME
 0118:14FF       PRINT_TIME
 0118:15F5       FREE_TPA
 0118:1600       ALLOC_TPA
 0118:1628       PRESCAN
 0118:1707       PATHCHRCMP
 0118:1715       PATHCRUNCH
 0118:179C       DISPSIZE
 0118:17A4       DISP32BITS
 0118:17E1       OUTBYTE
 0118:180F       GETBATBYT
 0118:185F       SCANOFF
 0118:1867       DELIM
 0118:187A       PRINT_PROMPT
 0118:18CE       PRINT_BACK
 0118:18D4       PRINT_EQ
 0118:18D8       PRINT_ESC
 0118:18DC       PRINT_G
 0118:18E0       PRINT_L
 0118:18E4       PRINT_B
 0118:18E9       SETPATH
 0118:1975       PATH
 0118:19CF       FCB_TO_ASCZ
 0118:19F5       GETNUM
 0118:1A15       OUT2
 0118:1A26       OUT
 0118:1A4B       ERROR_PRINT
 0118:1A54       CRPRINT
 0118:1A59       PRINT
 0118:1A5E       ZPRINT
 0118:1A85       ERROR_OUTPUT
 0118:1AA2       NOTEST2
 0118:1AF3       ECHO
 0118:1B3D       CNTRLC
 0118:1B6F       VERIFY
 0118:1BBB       PRINTVOL
 0118:1BFE       PRINT_DATE
 0118:1C25       GETDATE
 0118:1CA2       COPY
 0118:1E29       ENDCOPY
 0118:1F65       BUILDPATH
 0118:204F       COMPNAME
 0118:209D       SEARCHNEXT
 0118:20A9       SEARCH
 0118:20BA       DOCOPY
 0118:217F       CLOSEDEST
 0118:224A       FLSHFIL
 0118:2344       COPERR
 0118:237E       SETASC
 0118:244B       BUILDNAME
 0118:247A       CPARSE
 0118:25D0       BADBAT
 0118:25E7       NEEDBAT
 0118:2625       BADNAM
 0118:2640       RENERR
 0118:2657       NOTFND
 0118:2668       NOSPACE
 0118:2682       ENVERR
 0118:269D       FULDIR
 0118:26B3       OVERWR
 0118:26D7       LOSTERR
 0118:2701       COPIED_POST
 0118:2712       COPIED_PRE
 0118:2713       DIRMES_POST
 0118:271C       DIRMES_PRE
 0118:271D       BYTMES_POST
 0118:272A       BYTMES_PRE
 0118:272B       BADDRV
 0118:2749       PAUSEMES
 0118:2768       BADSWT
 0118:277C       WEEKTAB
 0118:2791       BADDAT
 0118:27A0       CURDAT_PRE
 0118:27B0       CURDAT_POST
 0118:27B0       CURDAT_MID
 0118:27B1       NEWDAT
 0118:27C4       BADTIM
 0118:27D3       CURTIM_PRE
 0118:27E3       CURTIM_POST
 0118:27E4       NEWTIM
 0118:27F7       SUREMES
 0118:280C       DMES
 0118:2816       VERMES_PRE
 0118:283E       VERMES_POST
 0118:283F       VOLMES
 0118:2851       GOTVOL
 0118:2856       NOVOL
 0118:2864       BADCD
 0118:2878       BADMKD
 0118:2895       BADRMD
 0118:28CC       BAD_ON_OFF
 0118:28E2       DIRHEAD_POST
 0118:28E5       DIRHEAD_PRE
 0118:28F5       NULPATH
 0118:28FE       PATH_TEXT
 0118:2903       PROMPT_TEXT
 0118:290A       BADPMES
 0118:2929       BADDEV
 0118:293A       BADLAB
 0118:294C       SYNTMES
 0118:295B       FORNESTMES
 0118:2973       PIPEEMES
 0118:2999       INBDEV
 0118:29C0       OFFMES
 0118:29C6       ONMES
 0118:29CB       CTRLCMES
 0118:29D5       VERIMES
 0118:29E0       ECHOMES
 0118:29E9       BADCPMES
 0118:2A05       BADARGS
 0118:2A24       DEVWMES
 0118:2A3B       ACRLF
 0118:2A3E       DBACK
 0118:2A42       CLSSTRING
 0118:2A47       PROMPT_TABLE
 0118:2A6F       IFTAB
 0118:2A8B       COMTAB
 0118:2B88       TRANDATAEND
 0118:2B90       UCOMBUF
 0118:2C13       COMBUF
 0118:2C96       USERDIR1
 0118:2CD9       EXECPATH
 0118:2D28       HEADCALL
 0118:2D2A       RESSEG
 0118:2D2C       TPA
 0118:2D2E       SWITCHAR
 0118:2D2F       DIRCHAR
 0118:2D30       EXEC_ADDR
 0118:2D34       RCH_ADDR
 0118:2D38       CHKDRV
 0118:2D39       IFNOTFLAG
 0118:2D39       RDEOF
 0118:2D39       FILTYP
 0118:2D3A       CURDRV
 0118:2D3B       PARM1
 0118:2D3B       CONCAT
 0118:2D3C       PARM2
 0118:2D3C       ARGC
 0118:2D3D       COMSW
 0118:2D3F       ARG1S
 0118:2D41       DESTSWITCH
 0118:2D41       ARG2S
 0118:2D43       ARGTS
 0118:2D43       ALLSWITCH
 0118:2D45       CFLAG
 0118:2D46       DESTCLOSED
 0118:2D46       SPECDRV
 0118:2D47       BYTCNT
 0118:2D49       NXTADD
 0118:2D4B       FRSTSRCH
 0118:2D4C       LINCNT
 0118:2D4D       LINLEN
 0118:2D4E       FILECNT
 0118:2D50       CHARBUF
 0118:2DA0       DESTFCB2
 0118:2DA0       IDLEN
 0118:2DA1       ID
 0118:2DA9       COM
 0118:2DAC       DEST
 0118:2DD1       DESTNAME
 0118:2DDC       DESTFCB
 0118:2DDC       DESTDIR
 0118:2E1C       PWDBUF
 0118:2E1C       DIRBUF
 0118:2E1C       GOTOLEN
 0118:2E1C       EXEFCB
 0118:2E5F       SDIRBUF
 0118:2E6B       BITS
 0118:2E6D       PATHCNT
 0118:2E6F       PATHPOS
 0118:2E71       PATHSW
 0118:2E73       FULLSCR
 0118:2E75       ROM_CALL
 0118:2E76       ROM_IP
 0118:2E78       ROM_CS
 0118:2E7A       DESTVARS
 0118:2E7A       DESTISDIR
 0118:2E7B       DESTSIZ
 0118:2E7C       DESTTAIL
 0118:2E7E       DESTINFO
 0118:2E7F       DESTBUF
 0118:2ED3       DESTHAND
 0118:2ED5       DESTISDEV
 0118:2ED6       FIRSTDEST
 0118:2ED7       MELCOPY
 0118:2ED8       MELSTART
 0118:2EDA       SRCVARS
 0118:2EDA       SRCISDIR
 0118:2EDB       SRCSIZ
 0118:2EDC       SRCTAIL
 0118:2EDE       SRCINFO
 0118:2EDF       SRCBUF
 0118:2F33       SRCHAND
 0118:2F35       SRCISDEV
 0118:2F36       SCANBUF
 0118:2F8A       SRCPT
 0118:2F8C       INEXACT
 0118:2F8D       APPEND
 0118:2F8E       NOWRITE
 0118:2F8F       BINARY
 0118:2F90       WRITTEN
 0118:2F91       TERMREAD
 0118:2F92       ASCII
 0118:2F93       PLUS
 0118:2F94       CPDATE
 0118:2F96       CPTIME
 0118:2F98       BATHAND
 0118:2F9A       STARTEL
 0118:2F9C       ELCNT
 0118:2F9D       ELPOS
 0118:2F9E       SKPDEL
 0118:2F9F       SOURCE
 0118:2FAA       INTERNATVARS
 0118:304A       TRANSPACEEND
 0118:304A       STACK
 041D:0000       $EXEC
 041D:04E0       EXEC_LONG_RET
 041D:04E1       EXEC_DEALLOC
 041D:04EA       EXEC_ALLOC
 041D:04F5       EXEC_DO_CHANGE_OWNER
 041D:0538       GET_USER_STACK
 041D:053F       RESTORE_CTRLC
 041D:054E       ZEXECCODEEND
 041D:058E       ZEXECDATAEND

Program entry point at 0000:0100
