

Warning: no stack segment

 Start  Stop   Length Name                   Class
 00000H 011DEH 011DFH CODE                   
 011DFH 019FEH 00820H CONST                  
 01A00H 01A4FH 00050H DATA                   

 Origin   Group
 0000:0   DG

  Address         Publics by Name

 0000:1212       ALLDRV
 0000:120B       ALLFILE
 0000:0FBA       AMDONE
 0000:1391       BADATT
 0000:13DC       BADCD
 0000:1690       BADCHAIN
 0000:15A8       BADCLUS
 0000:144D       BADDPBDIR
 0000:1324       BADDRV
 0000:1431       BADDRVM
 0000:1486       BADDRVM2
 0000:1850       BADIDBYT
 0000:1411       BADRDMES
 0000:16B7       BADREAD_POST
 0000:1660       BADREAD_PRE
 0000:128C       BADSIZ
 0000:139C       BADSIZM
 0000:1355       BADSUBDIR
 0000:13A2       BADTARG1
 0000:13B3       BADTARG2
 0000:130C       BADVER
 0000:16B7       BADWRITE_POST
 0000:1678       BADWRITE_PRE
 0000:1922       CDDDMES
 0000:1377       CENTRY
 0000:0746       CHAINREPORT
 0000:1113       CHECKERR
 0000:031C       CHECKFILES
 0000:0FA3       CHKCROSS
 0000:0DAB       CHKMAP
 0000:138B       CLUSBAD
 0000:12DC       CONBUF
 0000:17FA       CONTAINS
 0000:1A04       CONTCH
 0000:199B       CREATMES
 0000:1309       CRLF
 0000:1307       CRLF2
 0000:1295       CROSSCNT
 0000:16B7       CROSSMES_POST
 0000:16BA       CROSSMES_PRE
 0000:1A0D       CSIZE
 0000:126F       DDOTENT
 0000:11DF       DIRBUF
 0000:125D       DIRCHAR
 0000:1280       DIRCNT
 0000:1917       DIRECMES
 0000:0989       DIRPROC
 0000:1282       DIRSIZ
 0000:127F       DIRTYFAT
 0000:0552       DISP16BITS
 0000:056A       DISP32BITS
 0000:0559       DISPCLUS
 0000:05F2       DOCRLF
 0000:1299       DOFIX
 0000:0650       DOINT26
 0000:103D       DONE
 0000:05FA       DOTCOMBMES
 0000:1264       DOTENT
 0000:1262       DOTMES
 0000:1A22       DOTSNOGOOD
 0000:1A10       DSIZE
 0000:05EB       EPRINT
 0000:1A2D       ERRCNT
 0000:127C       ERRSUB
 0000:1807       EXTENTS
 0000:1A50       FAT
 0000:118C       FATAL
 0000:13F3       FATALMES
 0000:1A29       FATMAP
 0000:062A       FCB_TO_ASCZ
 0000:03B7       FIGREC
 0000:1284       FILCNT
 0000:1286       FILSIZ
 0000:0E4E       FINDCHAIN
 0000:18BE       FIXMES
 0000:127B       FIXMFLG
 0000:127E       FRAGMENT
 0000:1951       FREEBYMESF_POST
 0000:196B       FREEBYMESF_PRE
 0000:196C       FREEBYMES_POST
 0000:199A       FREEBYMES_PRE
 0000:16FD       FREEMES
 0000:1A00       HARDCH
 0000:1298       HAVFIX
 0000:127A       HECODE
 0000:1288       HIDCNT
 0000:128A       HIDSIZ
 0000:161F       IDMES1
 0000:161C       IDPOST
 0000:1849       INDENT
 0000:11BF       INT_23
 0000:11A3       INT_24
 0000:1A24       ISCROSS
 0000:1292       LCLUS
 0000:1A12       MCLUS
 0000:163C       MONTAB
 0000:1A14       NAMBUF
 0000:152B       NDOTMES
 0000:1821       NOEXTENTS
 0000:129A       NOISY
 0000:1601       NORECDDOT
 0000:15CE       NORECDOT
 0000:125E       NUL
 0000:157C       NULDMES
 0000:1540       NULNZ
 0000:19EA       OPNERR
 0000:128E       ORPHCNT
 0000:1240       ORPHEXT
 0000:1237       ORPHFCB
 0000:1290       ORPHSIZ
 0000:125F       PARSTR
 0000:05F5       PRINT
 0000:111C       PRINTCURRDIRERR
 0000:1137       PRINTTHISEL2
 0000:06C8       PROMPTYN
 0000:05DE       PRTCHR
 0000:187A       PTRANDIR
 0000:18A0       PTRANDIR2
 0000:11DA       RDONE
 0000:0669       RDSKERR
 0000:075E       REPORT
 0000:1A2B       SECBUF
 0000:1297       SECONDPASS
 0000:06F6       SETSWITCH
 0000:1A27       SRFCBPT
 0000:1A0E       SSIZE
 0000:1A2E       STACKLIM
 0000:1436       STACKMES
 0000:0613       SUBERRP
 0000:125C       SWITCHAR
 0000:163B       TCHAR
 0000:1A08       THISDPB
 0000:0D40       UNPACK
 0000:1A0C       USERDEV
 0000:129B       USERDIR
 0000:1626       VNAME
 0000:066E       WDSKERR
 0000:1A23       ZEROTRUNC

  Address         Publics by Value

 0000:031C       CHECKFILES
 0000:03B7       FIGREC
 0000:0552       DISP16BITS
 0000:0559       DISPCLUS
 0000:056A       DISP32BITS
 0000:05DE       PRTCHR
 0000:05EB       EPRINT
 0000:05F2       DOCRLF
 0000:05F5       PRINT
 0000:05FA       DOTCOMBMES
 0000:0613       SUBERRP
 0000:062A       FCB_TO_ASCZ
 0000:0650       DOINT26
 0000:0669       RDSKERR
 0000:066E       WDSKERR
 0000:06C8       PROMPTYN
 0000:06F6       SETSWITCH
 0000:0746       CHAINREPORT
 0000:075E       REPORT
 0000:0989       DIRPROC
 0000:0D40       UNPACK
 0000:0DAB       CHKMAP
 0000:0E4E       FINDCHAIN
 0000:0FA3       CHKCROSS
 0000:0FBA       AMDONE
 0000:103D       DONE
 0000:1113       CHECKERR
 0000:111C       PRINTCURRDIRERR
 0000:1137       PRINTTHISEL2
 0000:118C       FATAL
 0000:11A3       INT_24
 0000:11BF       INT_23
 0000:11DA       RDONE
 0000:11DF       DIRBUF
 0000:120B       ALLFILE
 0000:1212       ALLDRV
 0000:1237       ORPHFCB
 0000:1240       ORPHEXT
 0000:125C       SWITCHAR
 0000:125D       DIRCHAR
 0000:125E       NUL
 0000:125F       PARSTR
 0000:1262       DOTMES
 0000:1264       DOTENT
 0000:126F       DDOTENT
 0000:127A       HECODE
 0000:127B       FIXMFLG
 0000:127C       ERRSUB
 0000:127E       FRAGMENT
 0000:127F       DIRTYFAT
 0000:1280       DIRCNT
 0000:1282       DIRSIZ
 0000:1284       FILCNT
 0000:1286       FILSIZ
 0000:1288       HIDCNT
 0000:128A       HIDSIZ
 0000:128C       BADSIZ
 0000:128E       ORPHCNT
 0000:1290       ORPHSIZ
 0000:1292       LCLUS
 0000:1295       CROSSCNT
 0000:1297       SECONDPASS
 0000:1298       HAVFIX
 0000:1299       DOFIX
 0000:129A       NOISY
 0000:129B       USERDIR
 0000:12DC       CONBUF
 0000:1307       CRLF2
 0000:1309       CRLF
 0000:130C       BADVER
 0000:1324       BADDRV
 0000:1355       BADSUBDIR
 0000:1377       CENTRY
 0000:138B       CLUSBAD
 0000:1391       BADATT
 0000:139C       BADSIZM
 0000:13A2       BADTARG1
 0000:13B3       BADTARG2
 0000:13DC       BADCD
 0000:13F3       FATALMES
 0000:1411       BADRDMES
 0000:1431       BADDRVM
 0000:1436       STACKMES
 0000:144D       BADDPBDIR
 0000:1486       BADDRVM2
 0000:152B       NDOTMES
 0000:1540       NULNZ
 0000:157C       NULDMES
 0000:15A8       BADCLUS
 0000:15CE       NORECDOT
 0000:1601       NORECDDOT
 0000:161C       IDPOST
 0000:161F       IDMES1
 0000:1626       VNAME
 0000:163B       TCHAR
 0000:163C       MONTAB
 0000:1660       BADREAD_PRE
 0000:1678       BADWRITE_PRE
 0000:1690       BADCHAIN
 0000:16B7       BADREAD_POST
 0000:16B7       CROSSMES_POST
 0000:16B7       BADWRITE_POST
 0000:16BA       CROSSMES_PRE
 0000:16FD       FREEMES
 0000:17FA       CONTAINS
 0000:1807       EXTENTS
 0000:1821       NOEXTENTS
 0000:1849       INDENT
 0000:1850       BADIDBYT
 0000:187A       PTRANDIR
 0000:18A0       PTRANDIR2
 0000:18BE       FIXMES
 0000:1917       DIRECMES
 0000:1922       CDDDMES
 0000:1951       FREEBYMESF_POST
 0000:196B       FREEBYMESF_PRE
 0000:196C       FREEBYMES_POST
 0000:199A       FREEBYMES_PRE
 0000:199B       CREATMES
 0000:19EA       OPNERR
 0000:1A00       HARDCH
 0000:1A04       CONTCH
 0000:1A08       THISDPB
 0000:1A0C       USERDEV
 0000:1A0D       CSIZE
 0000:1A0E       SSIZE
 0000:1A10       DSIZE
 0000:1A12       MCLUS
 0000:1A14       NAMBUF
 0000:1A22       DOTSNOGOOD
 0000:1A23       ZEROTRUNC
 0000:1A24       ISCROSS
 0000:1A27       SRFCBPT
 0000:1A29       FATMAP
 0000:1A2B       SECBUF
 0000:1A2D       ERRCNT
 0000:1A2E       STACKLIM
 0000:1A50       FAT

Program entry point at 0000:0100
